target datalayout = "e-m:e-p270:32:32-p271:32:32-p272:64:64-i64:64-i128:128-f80:128-n8:16:32:64-S128"
target triple = "x86_64-pc-linux-gnu"

%struct.ident_split = type { ptr, ptr, ptr, ptr, ptr, ptr, ptr, ptr }

@sane_ctype = external constant [256 x i8], align 16
@.str.1 = private unnamed_addr constant [11 x i8] c"0123456789\00", align 1

; Function Attrs: nounwind uwtable
define dso_local i32 @split_ident_line(ptr noundef %0, ptr noundef %1, i32 noundef %2) #0 {
  %4 = alloca i32, align 4
  %5 = alloca ptr, align 8
  %6 = alloca ptr, align 8
  %7 = alloca i32, align 4
  %8 = alloca ptr, align 8
  %9 = alloca i64, align 8
  %10 = alloca i32, align 4
  %11 = alloca i32, align 4
  store ptr %0, ptr %5, align 8, !tbaa !29
  store ptr %1, ptr %6, align 8, !tbaa !20
  store i32 %2, ptr %7, align 4, !tbaa !4
  call void @llvm.lifetime.start.p0(i64 8, ptr %8) #10
  call void @llvm.lifetime.start.p0(i64 8, ptr %9) #10
  call void @llvm.lifetime.start.p0(i64 4, ptr %10) #10
  store i32 -1, ptr %10, align 4, !tbaa !4
  %12 = load ptr, ptr %5, align 8, !tbaa !29
  call void @llvm.memset.p0.i64(ptr align 8 %12, i8 0, i64 64, i1 false)
  %13 = load ptr, ptr %6, align 8, !tbaa !20
  %14 = load ptr, ptr %5, align 8, !tbaa !29
  %15 = getelementptr inbounds nuw %struct.ident_split, ptr %14, i32 0, i32 0
  store ptr %13, ptr %15, align 8, !tbaa !31
  %16 = load ptr, ptr %6, align 8, !tbaa !20
  store ptr %16, ptr %8, align 8, !tbaa !20
  br label %17

17:                                               ; preds = %42, %3
  %18 = load ptr, ptr %8, align 8, !tbaa !20
  %19 = load i8, ptr %18, align 1, !tbaa !21
  %20 = sext i8 %19 to i32
  %21 = icmp ne i32 %20, 0
  br i1 %21, label %22, label %29

22:                                               ; preds = %17
  %23 = load ptr, ptr %8, align 8, !tbaa !20
  %24 = load ptr, ptr %6, align 8, !tbaa !20
  %25 = load i32, ptr %7, align 4, !tbaa !4
  %26 = sext i32 %25 to i64
  %27 = getelementptr inbounds i8, ptr %24, i64 %26
  %28 = icmp ult ptr %23, %27
  br label %29

29:                                               ; preds = %22, %17
  %30 = phi i1 [ false, %17 ], [ %28, %22 ]
  br i1 %30, label %31, label %45

31:                                               ; preds = %29
  %32 = load ptr, ptr %8, align 8, !tbaa !20
  %33 = load i8, ptr %32, align 1, !tbaa !21
  %34 = sext i8 %33 to i32
  %35 = icmp eq i32 %34, 60
  br i1 %35, label %36, label %41

36:                                               ; preds = %31
  %37 = load ptr, ptr %8, align 8, !tbaa !20
  %38 = getelementptr inbounds i8, ptr %37, i64 1
  %39 = load ptr, ptr %5, align 8, !tbaa !29
  %40 = getelementptr inbounds nuw %struct.ident_split, ptr %39, i32 0, i32 2
  store ptr %38, ptr %40, align 8, !tbaa !33
  br label %45

41:                                               ; preds = %31
  br label %42

42:                                               ; preds = %41
  %43 = load ptr, ptr %8, align 8, !tbaa !20
  %44 = getelementptr inbounds nuw i8, ptr %43, i32 1
  store ptr %44, ptr %8, align 8, !tbaa !20
  br label %17, !llvm.loop !34

45:                                               ; preds = %36, %29
  %46 = load ptr, ptr %5, align 8, !tbaa !29
  %47 = getelementptr inbounds nuw %struct.ident_split, ptr %46, i32 0, i32 2
  %48 = load ptr, ptr %47, align 8, !tbaa !33
  %49 = icmp ne ptr %48, null
  br i1 %49, label %52, label %50

50:                                               ; preds = %45
  %51 = load i32, ptr %10, align 4, !tbaa !4
  store i32 %51, ptr %4, align 4
  store i32 1, ptr %11, align 4
  br label %257

52:                                               ; preds = %45
  %53 = load ptr, ptr %5, align 8, !tbaa !29
  %54 = getelementptr inbounds nuw %struct.ident_split, ptr %53, i32 0, i32 2
  %55 = load ptr, ptr %54, align 8, !tbaa !33
  %56 = getelementptr inbounds i8, ptr %55, i64 -2
  store ptr %56, ptr %8, align 8, !tbaa !20
  br label %57

57:                                               ; preds = %76, %52
  %58 = load ptr, ptr %6, align 8, !tbaa !20
  %59 = load ptr, ptr %8, align 8, !tbaa !20
  %60 = icmp ule ptr %58, %59
  br i1 %60, label %61, label %79

61:                                               ; preds = %57
  %62 = load ptr, ptr %8, align 8, !tbaa !20
  %63 = load i8, ptr %62, align 1, !tbaa !21
  %64 = zext i8 %63 to i64
  %65 = getelementptr inbounds nuw [256 x i8], ptr @sane_ctype, i64 0, i64 %64
  %66 = load i8, ptr %65, align 1, !tbaa !21
  %67 = zext i8 %66 to i32
  %68 = and i32 %67, 1
  %69 = icmp ne i32 %68, 0
  br i1 %69, label %75, label %70

70:                                               ; preds = %61
  %71 = load ptr, ptr %8, align 8, !tbaa !20
  %72 = getelementptr inbounds i8, ptr %71, i64 1
  %73 = load ptr, ptr %5, align 8, !tbaa !29
  %74 = getelementptr inbounds nuw %struct.ident_split, ptr %73, i32 0, i32 1
  store ptr %72, ptr %74, align 8, !tbaa !35
  br label %79

75:                                               ; preds = %61
  br label %76

76:                                               ; preds = %75
  %77 = load ptr, ptr %8, align 8, !tbaa !20
  %78 = getelementptr inbounds i8, ptr %77, i32 -1
  store ptr %78, ptr %8, align 8, !tbaa !20
  br label %57, !llvm.loop !36

79:                                               ; preds = %70, %57
  %80 = load ptr, ptr %5, align 8, !tbaa !29
  %81 = getelementptr inbounds nuw %struct.ident_split, ptr %80, i32 0, i32 1
  %82 = load ptr, ptr %81, align 8, !tbaa !35
  %83 = icmp ne ptr %82, null
  br i1 %83, label %90, label %84

84:                                               ; preds = %79
  %85 = load ptr, ptr %5, align 8, !tbaa !29
  %86 = getelementptr inbounds nuw %struct.ident_split, ptr %85, i32 0, i32 0
  %87 = load ptr, ptr %86, align 8, !tbaa !31
  %88 = load ptr, ptr %5, align 8, !tbaa !29
  %89 = getelementptr inbounds nuw %struct.ident_split, ptr %88, i32 0, i32 1
  store ptr %87, ptr %89, align 8, !tbaa !35
  br label %90

90:                                               ; preds = %84, %79
  %91 = load ptr, ptr %5, align 8, !tbaa !29
  %92 = getelementptr inbounds nuw %struct.ident_split, ptr %91, i32 0, i32 2
  %93 = load ptr, ptr %92, align 8, !tbaa !33
  store ptr %93, ptr %8, align 8, !tbaa !20
  br label %94

94:                                               ; preds = %111, %90
  %95 = load ptr, ptr %8, align 8, !tbaa !20
  %96 = load ptr, ptr %6, align 8, !tbaa !20
  %97 = load i32, ptr %7, align 4, !tbaa !4
  %98 = sext i32 %97 to i64
  %99 = getelementptr inbounds i8, ptr %96, i64 %98
  %100 = icmp ult ptr %95, %99
  br i1 %100, label %101, label %114

101:                                              ; preds = %94
  %102 = load ptr, ptr %8, align 8, !tbaa !20
  %103 = load i8, ptr %102, align 1, !tbaa !21
  %104 = sext i8 %103 to i32
  %105 = icmp eq i32 %104, 62
  br i1 %105, label %106, label %110

106:                                              ; preds = %101
  %107 = load ptr, ptr %8, align 8, !tbaa !20
  %108 = load ptr, ptr %5, align 8, !tbaa !29
  %109 = getelementptr inbounds nuw %struct.ident_split, ptr %108, i32 0, i32 3
  store ptr %107, ptr %109, align 8, !tbaa !37
  br label %114

110:                                              ; preds = %101
  br label %111

111:                                              ; preds = %110
  %112 = load ptr, ptr %8, align 8, !tbaa !20
  %113 = getelementptr inbounds nuw i8, ptr %112, i32 1
  store ptr %113, ptr %8, align 8, !tbaa !20
  br label %94, !llvm.loop !38

114:                                              ; preds = %106, %94
  %115 = load ptr, ptr %5, align 8, !tbaa !29
  %116 = getelementptr inbounds nuw %struct.ident_split, ptr %115, i32 0, i32 3
  %117 = load ptr, ptr %116, align 8, !tbaa !37
  %118 = icmp ne ptr %117, null
  br i1 %118, label %121, label %119

119:                                              ; preds = %114
  %120 = load i32, ptr %10, align 4, !tbaa !4
  store i32 %120, ptr %4, align 4
  store i32 1, ptr %11, align 4
  br label %257

121:                                              ; preds = %114
  %122 = load ptr, ptr %6, align 8, !tbaa !20
  %123 = load i32, ptr %7, align 4, !tbaa !4
  %124 = sext i32 %123 to i64
  %125 = getelementptr inbounds i8, ptr %122, i64 %124
  %126 = getelementptr inbounds i8, ptr %125, i64 -1
  store ptr %126, ptr %8, align 8, !tbaa !20
  br label %127

127:                                              ; preds = %133, %121
  %128 = load ptr, ptr %8, align 8, !tbaa !20
  %129 = load i8, ptr %128, align 1, !tbaa !21
  %130 = sext i8 %129 to i32
  %131 = icmp ne i32 %130, 62
  br i1 %131, label %132, label %136

132:                                              ; preds = %127
  br label %133

133:                                              ; preds = %132
  %134 = load ptr, ptr %8, align 8, !tbaa !20
  %135 = getelementptr inbounds i8, ptr %134, i32 -1
  store ptr %135, ptr %8, align 8, !tbaa !20
  br label %127, !llvm.loop !39

136:                                              ; preds = %127
  %137 = load ptr, ptr %8, align 8, !tbaa !20
  %138 = getelementptr inbounds i8, ptr %137, i64 1
  store ptr %138, ptr %8, align 8, !tbaa !20
  br label %139

139:                                              ; preds = %158, %136
  %140 = load ptr, ptr %8, align 8, !tbaa !20
  %141 = load ptr, ptr %6, align 8, !tbaa !20
  %142 = load i32, ptr %7, align 4, !tbaa !4
  %143 = sext i32 %142 to i64
  %144 = getelementptr inbounds i8, ptr %141, i64 %143
  %145 = icmp ult ptr %140, %144
  br i1 %145, label %146, label %155

146:                                              ; preds = %139
  %147 = load ptr, ptr %8, align 8, !tbaa !20
  %148 = load i8, ptr %147, align 1, !tbaa !21
  %149 = zext i8 %148 to i64
  %150 = getelementptr inbounds nuw [256 x i8], ptr @sane_ctype, i64 0, i64 %149
  %151 = load i8, ptr %150, align 1, !tbaa !21
  %152 = zext i8 %151 to i32
  %153 = and i32 %152, 1
  %154 = icmp ne i32 %153, 0
  br label %155

155:                                              ; preds = %146, %139
  %156 = phi i1 [ false, %139 ], [ %154, %146 ]
  br i1 %156, label %157, label %161

157:                                              ; preds = %155
  br label %158

158:                                              ; preds = %157
  %159 = load ptr, ptr %8, align 8, !tbaa !20
  %160 = getelementptr inbounds nuw i8, ptr %159, i32 1
  store ptr %160, ptr %8, align 8, !tbaa !20
  br label %139, !llvm.loop !40

161:                                              ; preds = %155
  %162 = load ptr, ptr %6, align 8, !tbaa !20
  %163 = load i32, ptr %7, align 4, !tbaa !4
  %164 = sext i32 %163 to i64
  %165 = getelementptr inbounds i8, ptr %162, i64 %164
  %166 = load ptr, ptr %8, align 8, !tbaa !20
  %167 = icmp ule ptr %165, %166
  br i1 %167, label %168, label %169

168:                                              ; preds = %161
  br label %248

169:                                              ; preds = %161
  %170 = load ptr, ptr %8, align 8, !tbaa !20
  %171 = load ptr, ptr %5, align 8, !tbaa !29
  %172 = getelementptr inbounds nuw %struct.ident_split, ptr %171, i32 0, i32 4
  store ptr %170, ptr %172, align 8, !tbaa !41
  %173 = load ptr, ptr %8, align 8, !tbaa !20
  %174 = call i64 @strspn(ptr noundef %173, ptr noundef @.str.1) #12
  store i64 %174, ptr %9, align 8, !tbaa !27
  %175 = load i64, ptr %9, align 8, !tbaa !27
  %176 = icmp ne i64 %175, 0
  br i1 %176, label %178, label %177

177:                                              ; preds = %169
  br label %248

178:                                              ; preds = %169
  %179 = load ptr, ptr %5, align 8, !tbaa !29
  %180 = getelementptr inbounds nuw %struct.ident_split, ptr %179, i32 0, i32 4
  %181 = load ptr, ptr %180, align 8, !tbaa !41
  %182 = load i64, ptr %9, align 8, !tbaa !27
  %183 = getelementptr inbounds nuw i8, ptr %181, i64 %182
  %184 = load ptr, ptr %5, align 8, !tbaa !29
  %185 = getelementptr inbounds nuw %struct.ident_split, ptr %184, i32 0, i32 5
  store ptr %183, ptr %185, align 8, !tbaa !42
  %186 = load ptr, ptr %5, align 8, !tbaa !29
  %187 = getelementptr inbounds nuw %struct.ident_split, ptr %186, i32 0, i32 5
  %188 = load ptr, ptr %187, align 8, !tbaa !42
  store ptr %188, ptr %8, align 8, !tbaa !20
  br label %189

189:                                              ; preds = %208, %178
  %190 = load ptr, ptr %8, align 8, !tbaa !20
  %191 = load ptr, ptr %6, align 8, !tbaa !20
  %192 = load i32, ptr %7, align 4, !tbaa !4
  %193 = sext i32 %192 to i64
  %194 = getelementptr inbounds i8, ptr %191, i64 %193
  %195 = icmp ult ptr %190, %194
  br i1 %195, label %196, label %205

196:                                              ; preds = %189
  %197 = load ptr, ptr %8, align 8, !tbaa !20
  %198 = load i8, ptr %197, align 1, !tbaa !21
  %199 = zext i8 %198 to i64
  %200 = getelementptr inbounds nuw [256 x i8], ptr @sane_ctype, i64 0, i64 %199
  %201 = load i8, ptr %200, align 1, !tbaa !21
  %202 = zext i8 %201 to i32
  %203 = and i32 %202, 1
  %204 = icmp ne i32 %203, 0
  br label %205

205:                                              ; preds = %196, %189
  %206 = phi i1 [ false, %189 ], [ %204, %196 ]
  br i1 %206, label %207, label %211

207:                                              ; preds = %205
  br label %208

208:                                              ; preds = %207
  %209 = load ptr, ptr %8, align 8, !tbaa !20
  %210 = getelementptr inbounds nuw i8, ptr %209, i32 1
  store ptr %210, ptr %8, align 8, !tbaa !20
  br label %189, !llvm.loop !43

211:                                              ; preds = %205
  %212 = load ptr, ptr %6, align 8, !tbaa !20
  %213 = load i32, ptr %7, align 4, !tbaa !4
  %214 = sext i32 %213 to i64
  %215 = getelementptr inbounds i8, ptr %212, i64 %214
  %216 = load ptr, ptr %8, align 8, !tbaa !20
  %217 = icmp ule ptr %215, %216
  br i1 %217, label %228, label %218

218:                                              ; preds = %211
  %219 = load ptr, ptr %8, align 8, !tbaa !20
  %220 = load i8, ptr %219, align 1, !tbaa !21
  %221 = sext i8 %220 to i32
  %222 = icmp ne i32 %221, 43
  br i1 %222, label %223, label %229

223:                                              ; preds = %218
  %224 = load ptr, ptr %8, align 8, !tbaa !20
  %225 = load i8, ptr %224, align 1, !tbaa !21
  %226 = sext i8 %225 to i32
  %227 = icmp ne i32 %226, 45
  br i1 %227, label %228, label %229

228:                                              ; preds = %223, %211
  br label %248

229:                                              ; preds = %223, %218
  %230 = load ptr, ptr %8, align 8, !tbaa !20
  %231 = load ptr, ptr %5, align 8, !tbaa !29
  %232 = getelementptr inbounds nuw %struct.ident_split, ptr %231, i32 0, i32 6
  store ptr %230, ptr %232, align 8, !tbaa !44
  %233 = load ptr, ptr %8, align 8, !tbaa !20
  %234 = getelementptr inbounds i8, ptr %233, i64 1
  %235 = call i64 @strspn(ptr noundef %234, ptr noundef @.str.1) #12
  store i64 %235, ptr %9, align 8, !tbaa !27
  %236 = load i64, ptr %9, align 8, !tbaa !27
  %237 = icmp ne i64 %236, 0
  br i1 %237, label %239, label %238

238:                                              ; preds = %229
  br label %248

239:                                              ; preds = %229
  %240 = load ptr, ptr %5, align 8, !tbaa !29
  %241 = getelementptr inbounds nuw %struct.ident_split, ptr %240, i32 0, i32 6
  %242 = load ptr, ptr %241, align 8, !tbaa !44
  %243 = getelementptr inbounds i8, ptr %242, i64 1
  %244 = load i64, ptr %9, align 8, !tbaa !27
  %245 = getelementptr inbounds nuw i8, ptr %243, i64 %244
  %246 = load ptr, ptr %5, align 8, !tbaa !29
  %247 = getelementptr inbounds nuw %struct.ident_split, ptr %246, i32 0, i32 7
  store ptr %245, ptr %247, align 8, !tbaa !45
  store i32 0, ptr %4, align 4
  store i32 1, ptr %11, align 4
  br label %257

248:                                              ; preds = %238, %228, %177, %168
  %249 = load ptr, ptr %5, align 8, !tbaa !29
  %250 = getelementptr inbounds nuw %struct.ident_split, ptr %249, i32 0, i32 4
  store ptr null, ptr %250, align 8, !tbaa !41
  %251 = load ptr, ptr %5, align 8, !tbaa !29
  %252 = getelementptr inbounds nuw %struct.ident_split, ptr %251, i32 0, i32 5
  store ptr null, ptr %252, align 8, !tbaa !42
  %253 = load ptr, ptr %5, align 8, !tbaa !29
  %254 = getelementptr inbounds nuw %struct.ident_split, ptr %253, i32 0, i32 6
  store ptr null, ptr %254, align 8, !tbaa !44
  %255 = load ptr, ptr %5, align 8, !tbaa !29
  %256 = getelementptr inbounds nuw %struct.ident_split, ptr %255, i32 0, i32 7
  store ptr null, ptr %256, align 8, !tbaa !45
  store i32 0, ptr %4, align 4
  store i32 1, ptr %11, align 4
  br label %257

257:                                              ; preds = %248, %239, %119, %50
  call void @llvm.lifetime.end.p0(i64 4, ptr %10) #10
  call void @llvm.lifetime.end.p0(i64 8, ptr %9) #10
  call void @llvm.lifetime.end.p0(i64 8, ptr %8) #10
  %258 = load i32, ptr %4, align 4
  ret i32 %258
}