; Function Attrs: nofree nounwind memory(argmem: readwrite) uwtable
define dso_local range(i32 -1, 1) i32 @split_ident_line(ptr noundef writeonly captures(none) initializes((0, 64)) %0, ptr noundef %1, i32 noundef %2) local_unnamed_addr #5 {
  %4 = getelementptr inbounds nuw i8, ptr %0, i64 8
  tail call void @llvm.memset.p0.i64(ptr noundef nonnull align 8 dereferenceable(64) %4, i8 0, i64 56, i1 false)
  store ptr %1, ptr %0, align 8, !tbaa !27
  %5 = sext i32 %2 to i64
  %6 = getelementptr inbounds i8, ptr %1, i64 %5
  %7 = load i8, ptr %1, align 1, !tbaa !13
  %8 = icmp ne i8 %7, 0
  %9 = icmp sgt i32 %2, 0
  %10 = and i1 %8, %9
  br i1 %10, label %.lr.ph, label %.loopexit101.thread

.lr.ph:                                           ; preds = %3, %14
  %11 = phi i8 [ %15, %14 ], [ %7, %3 ]
  %.078108 = phi ptr [ %13, %14 ], [ %1, %3 ]
  %12 = icmp eq i8 %11, 60
  %13 = getelementptr inbounds nuw i8, ptr %.078108, i64 1
  br i1 %12, label %19, label %14

14:                                               ; preds = %.lr.ph
  %15 = load i8, ptr %13, align 1, !tbaa !13
  %16 = icmp ne i8 %15, 0
  %17 = icmp ult ptr %13, %6
  %18 = select i1 %16, i1 %17, i1 false
  br i1 %18, label %.lr.ph, label %.loopexit101.thread, !llvm.loop !29

19:                                               ; preds = %.lr.ph
  %20 = getelementptr inbounds nuw i8, ptr %0, i64 16
  store ptr %13, ptr %20, align 8, !tbaa !30
  %21 = getelementptr inbounds i8, ptr %.078108, i64 -1
  %.not85109 = icmp ugt ptr %1, %21
  br i1 %.not85109, label %.loopexit, label %.lr.ph111

.lr.ph111:                                        ; preds = %19, %27
  %.1110 = phi ptr [ %28, %27 ], [ %21, %19 ]
  %22 = load i8, ptr %.1110, align 1, !tbaa !13
  %23 = zext i8 %22 to i64
  %24 = getelementptr inbounds nuw [256 x i8], ptr @sane_ctype, i64 0, i64 %23
  %25 = load i8, ptr %24, align 1, !tbaa !13
  %26 = and i8 %25, 1
  %.not86 = icmp eq i8 %26, 0
  br i1 %.not86, label %.loopexit100, label %27

27:                                               ; preds = %.lr.ph111
  %28 = getelementptr inbounds i8, ptr %.1110, i64 -1
  %.not85 = icmp ugt ptr %1, %28
  br i1 %.not85, label %.loopexit, label %.lr.ph111, !llvm.loop !31

.loopexit100:                                     ; preds = %.lr.ph111
  %29 = getelementptr inbounds nuw i8, ptr %.1110, i64 1
  br label %.loopexit

.loopexit:                                        ; preds = %27, %19, %.loopexit100
  %.sink = phi ptr [ %29, %.loopexit100 ], [ %1, %19 ], [ %1, %27 ]
  %30 = getelementptr inbounds nuw i8, ptr %0, i64 8
  store ptr %.sink, ptr %30, align 8, !tbaa !32
  %31 = icmp ult ptr %13, %6
  br i1 %31, label %.lr.ph113, label %.loopexit101.thread

.lr.ph113:                                        ; preds = %.loopexit, %34
  %.2112 = phi ptr [ %35, %34 ], [ %13, %.loopexit ]
  %32 = load i8, ptr %.2112, align 1, !tbaa !13
  %33 = icmp eq i8 %32, 62
  br i1 %33, label %.preheader99.preheader, label %34

34:                                               ; preds = %.lr.ph113
  %35 = getelementptr inbounds nuw i8, ptr %.2112, i64 1
  %36 = icmp ult ptr %35, %6
  br i1 %36, label %.lr.ph113, label %.loopexit101.thread, !llvm.loop !33

.preheader99.preheader:                           ; preds = %.lr.ph113
  %37 = getelementptr inbounds nuw i8, ptr %0, i64 24
  store ptr %.2112, ptr %37, align 8, !tbaa !34
  br label %.preheader99

.preheader99:                                     ; preds = %.preheader99.preheader, %.preheader99
  %.pn = phi ptr [ %.3, %.preheader99 ], [ %6, %.preheader99.preheader ]
  %.3 = getelementptr inbounds i8, ptr %.pn, i64 -1
  %38 = load i8, ptr %.3, align 1, !tbaa !13
  %.not89 = icmp eq i8 %38, 62
  br i1 %.not89, label %.preheader, label %.preheader99, !llvm.loop !35

.preheader:                                       ; preds = %.preheader99, %40
  %.3.pn = phi ptr [ %.4, %40 ], [ %.3, %.preheader99 ]
  %.4 = getelementptr inbounds nuw i8, ptr %.3.pn, i64 1
  %39 = icmp ult ptr %.4, %6
  br i1 %39, label %40, label %.critedge

40:                                               ; preds = %.preheader
  %41 = load i8, ptr %.4, align 1, !tbaa !13
  %42 = zext i8 %41 to i64
  %43 = getelementptr inbounds nuw [256 x i8], ptr @sane_ctype, i64 0, i64 %42
  %44 = load i8, ptr %43, align 1, !tbaa !13
  %45 = and i8 %44, 1
  %.not90 = icmp eq i8 %45, 0
  br i1 %.not90, label %46, label %.preheader, !llvm.loop !36

46:                                               ; preds = %40
  %47 = getelementptr inbounds nuw i8, ptr %0, i64 32
  store ptr %.4, ptr %47, align 8, !tbaa !37
  %48 = tail call i64 @strspn(ptr noundef nonnull %.4, ptr noundef nonnull @.str.1) #20
  %.not92 = icmp eq i64 %48, 0
  br i1 %.not92, label %.critedge, label %49

49:                                               ; preds = %46
  %50 = getelementptr inbounds nuw i8, ptr %.4, i64 %48
  %51 = getelementptr inbounds nuw i8, ptr %0, i64 40
  store ptr %50, ptr %51, align 8, !tbaa !38
  %52 = icmp ult ptr %50, %6
  br i1 %52, label %.lr.ph115, label %.critedge

.lr.ph115:                                        ; preds = %49, %58
  %.5114 = phi ptr [ %59, %58 ], [ %50, %49 ]
  %53 = load i8, ptr %.5114, align 1, !tbaa !13
  %54 = zext i8 %53 to i64
  %55 = getelementptr inbounds nuw [256 x i8], ptr @sane_ctype, i64 0, i64 %54
  %56 = load i8, ptr %55, align 1, !tbaa !13
  %57 = and i8 %56, 1
  %.not93 = icmp eq i8 %57, 0
  br i1 %.not93, label %61, label %58

58:                                               ; preds = %.lr.ph115
  %59 = getelementptr inbounds nuw i8, ptr %.5114, i64 1
  %60 = icmp ult ptr %59, %6
  br i1 %60, label %.lr.ph115, label %.critedge, !llvm.loop !39

61:                                               ; preds = %.lr.ph115
  switch i8 %53, label %.critedge [
    i8 43, label %62
    i8 45, label %62
  ]

62:                                               ; preds = %61, %61
  %63 = getelementptr inbounds nuw i8, ptr %0, i64 48
  store ptr %.5114, ptr %63, align 8, !tbaa !40
  %64 = getelementptr inbounds nuw i8, ptr %.5114, i64 1
  %65 = tail call i64 @strspn(ptr noundef nonnull %64, ptr noundef nonnull @.str.1) #20
  %.not97 = icmp eq i64 %65, 0
  br i1 %.not97, label %.critedge, label %66

66:                                               ; preds = %62
  %67 = getelementptr inbounds nuw i8, ptr %64, i64 %65
  %68 = getelementptr inbounds nuw i8, ptr %0, i64 56
  store ptr %67, ptr %68, align 8, !tbaa !41
  br label %.loopexit101.thread

.critedge:                                        ; preds = %.preheader, %58, %49, %61, %62, %46
  %69 = getelementptr inbounds nuw i8, ptr %0, i64 32
  tail call void @llvm.memset.p0.i64(ptr noundef nonnull align 8 dereferenceable(32) %69, i8 0, i64 32, i1 false)
  br label %.loopexit101.thread

.loopexit101.thread:                              ; preds = %14, %34, %.loopexit, %3, %.critedge, %66
  %.0 = phi i32 [ 0, %.critedge ], [ 0, %66 ], [ -1, %3 ], [ -1, %.loopexit ], [ -1, %34 ], [ -1, %14 ]
  ret i32 %.0
}